; Function Attrs: nounwind uwtable
define i64 @SSL_client_hello_get0_compression_methods(ptr noundef %0, ptr noundef writeonly captures(address_is_null) %1) local_unnamed_addr #0 {
  %3 = icmp eq ptr %0, null
  br i1 %3, label %.thread, label %4

4:                                                ; preds = %2
  %5 = load i32, ptr %0, align 8, !tbaa !19
  %6 = icmp eq i32 %5, 0
  br i1 %6, label %.thread17, label %7

7:                                                ; preds = %4
  %8 = and i32 %5, 128
  %.not = icmp eq i32 %8, 0
  br i1 %.not, label %.thread, label %9

9:                                                ; preds = %7
  %10 = tail call ptr @ossl_quic_obj_get0_handshake_layer(ptr noundef nonnull %0) #20
  %11 = icmp eq ptr %10, null
  br i1 %11, label %.thread, label %.thread17

.thread17:                                        ; preds = %4, %9
  %12 = phi ptr [ %10, %9 ], [ %0, %4 ]
  %13 = getelementptr inbounds nuw i8, ptr %12, i64 2904
  %14 = load ptr, ptr %13, align 8, !tbaa !349
  %15 = icmp eq ptr %14, null
  br i1 %15, label %.thread, label %16

16:                                               ; preds = %.thread17
  %.not16 = icmp eq ptr %1, null
  br i1 %.not16, label %19, label %17

17:                                               ; preds = %16
  %18 = getelementptr inbounds nuw i8, ptr %14, i64 368
  store ptr %18, ptr %1, align 8, !tbaa !283
  br label %19

19:                                               ; preds = %17, %16
  %20 = getelementptr inbounds nuw i8, ptr %14, i64 360
  %21 = load i64, ptr %20, align 8, !tbaa !498
  br label %.thread

.thread:                                          ; preds = %7, %2, %.thread17, %9, %19
  %.0 = phi i64 [ %21, %19 ], [ 0, %9 ], [ 0, %.thread17 ], [ 0, %2 ], [ 0, %7 ]
  ret i64 %.0
}